; Function Attrs: null_pointer_is_valid sspstrong uwtable
define internal fastcc range(i32 23, 26) i32 @dissect_rdm_pd_broker_status(ptr noundef %0, ptr noundef %1, i8 noundef zeroext %2) unnamed_addr #1 {
  switch i8 %2, label %9 [
    i8 33, label %4
    i8 48, label %.sink.split
  ]

4:                                                ; preds = %3
  %5 = load i32, ptr @hf_rem_pd_broker_status_set_allowed, align 4
  %6 = tail call ptr @proto_tree_add_item(ptr noundef %1, i32 noundef %5, ptr noundef %0, i32 noundef 23, i32 noundef 1, i32 noundef 0)
  br label %.sink.split

.sink.split:                                      ; preds = %3, %4
  %.sink12 = phi i32 [ 24, %4 ], [ 23, %3 ]
  %.0.ph = phi i32 [ 25, %4 ], [ 24, %3 ]
  %7 = load i32, ptr @hf_rem_pd_broker_status_state, align 4
  %8 = tail call ptr @proto_tree_add_item(ptr noundef %1, i32 noundef %7, ptr noundef %0, i32 noundef %.sink12, i32 noundef 1, i32 noundef 0)
  br label %9

9:                                                ; preds = %.sink.split, %3
  %.0 = phi i32 [ 23, %3 ], [ %.0.ph, %.sink.split ]
  ret i32 %.0
}